target datalayout = "e-m:e-p270:32:32-p271:32:32-p272:64:64-i64:64-i128:128-f80:128-n8:16:32:64-S128"
target triple = "x86_64-pc-linux-gnu"

@.str.226 = private unnamed_addr constant [21 x i8] c"ZigBee Network Layer\00", align 1
@.str.227 = private unnamed_addr constant [7 x i8] c"ZigBee\00", align 1
@.str.228 = private unnamed_addr constant [9 x i8] c"zbee_nwk\00", align 1
@proto_zbee_nwk = internal global i32 0, align 4
@.str.229 = private unnamed_addr constant [14 x i8] c"ZigBee Beacon\00", align 1
@.str.230 = private unnamed_addr constant [12 x i8] c"zbee_beacon\00", align 1
@proto_zbee_beacon = internal global i32 0, align 4
@.str.231 = private unnamed_addr constant [17 x i8] c"ZigBee IP Beacon\00", align 1
@.str.232 = private unnamed_addr constant [12 x i8] c"zbip_beacon\00", align 1
@proto_zbip_beacon = internal global i32 0, align 4
@.str.233 = private unnamed_addr constant [10 x i8] c"ZigBee IE\00", align 1
@.str.234 = private unnamed_addr constant [8 x i8] c"zbee_ie\00", align 1
@proto_zbee_ie = internal global i32 0, align 4
@.str.235 = private unnamed_addr constant [10 x i8] c"AT_ZIGBEE\00", align 1
@.str.236 = private unnamed_addr constant [22 x i8] c"ZigBee 16-bit address\00", align 1
@zbee_nwk_address_type = internal global i32 -1, align 4
@zbee_nwk_tap = internal global i32 0, align 4

; Function Attrs: null_pointer_is_valid sspstrong uwtable
define hidden void @proto_register_zbee_nwk() #1 {
  %1 = alloca ptr, align 8
  call void @llvm.lifetime.start.p0(i64 8, ptr %1) #10
  call void @register_init_routine(ptr noundef @proto_init_zbee_nwk)
  call void @register_cleanup_routine(ptr noundef @proto_cleanup_zbee_nwk)
  %2 = call i32 @proto_register_protocol(ptr noundef @.str.226, ptr noundef @.str.227, ptr noundef @.str.228)
  store i32 %2, ptr @proto_zbee_nwk, align 4
  %3 = call i32 @proto_register_protocol(ptr noundef @.str.229, ptr noundef @.str.229, ptr noundef @.str.230)
  store i32 %3, ptr @proto_zbee_beacon, align 4
  %4 = call i32 @proto_register_protocol(ptr noundef @.str.231, ptr noundef @.str.231, ptr noundef @.str.232)
  store i32 %4, ptr @proto_zbip_beacon, align 4
  %5 = call i32 @proto_register_protocol(ptr noundef @.str.233, ptr noundef @.str.233, ptr noundef @.str.234)
  store i32 %5, ptr @proto_zbee_ie, align 4
  %6 = load i32, ptr @proto_zbee_nwk, align 4
  call void @proto_register_field_array(i32 noundef %6, ptr noundef @proto_register_zbee_nwk.hf, i32 noundef 105)
  call void @proto_register_subtree_array(ptr noundef @proto_register_zbee_nwk.ett, i32 noundef 17)
  %7 = load i32, ptr @proto_zbee_nwk, align 4
  %8 = call ptr @expert_register_protocol(i32 noundef %7)
  store ptr %8, ptr %1, align 8
  %9 = load ptr, ptr %1, align 8
  call void @expert_register_field_array(ptr noundef %9, ptr noundef @proto_register_zbee_nwk.ei, i32 noundef 1)
  %10 = load i32, ptr @proto_zbee_nwk, align 4
  %11 = call ptr @register_dissector(ptr noundef @.str.228, ptr noundef @dissect_zbee_nwk, i32 noundef %10)
  %12 = load i32, ptr @proto_zbee_beacon, align 4
  %13 = call ptr @register_dissector(ptr noundef @.str.230, ptr noundef @dissect_zbee_beacon, i32 noundef %12)
  %14 = load i32, ptr @proto_zbip_beacon, align 4
  %15 = call ptr @register_dissector(ptr noundef @.str.232, ptr noundef @dissect_zbip_beacon, i32 noundef %14)
  %16 = load i32, ptr @proto_zbee_ie, align 4
  %17 = call ptr @register_dissector(ptr noundef @.str.234, ptr noundef @dissect_zbee_ie, i32 noundef %16)
  %18 = call i32 @address_type_dissector_register(ptr noundef @.str.235, ptr noundef @.str.236, ptr noundef @zbee_nwk_address_to_str, ptr noundef @zbee_nwk_address_str_len, ptr noundef null, ptr noundef null, ptr noundef @zbee_nwk_address_len, ptr noundef null, ptr noundef null)
  store i32 %18, ptr @zbee_nwk_address_type, align 4
  %19 = load i32, ptr @proto_zbee_nwk, align 4
  call void @zbee_security_register(ptr noundef null, i32 noundef %19)
  %20 = call i32 @register_tap(ptr noundef @.str.228)
  store i32 %20, ptr @zbee_nwk_tap, align 4
  %21 = load i32, ptr @proto_zbee_nwk, align 4
  call void @register_conversation_table(i32 noundef %21, i1 noundef zeroext true, ptr noundef @zbee_nwk_conversation_packet, ptr noundef @zbee_nwk_endpoint_packet)
  call void @register_conversation_filter(ptr noundef @.str.228, ptr noundef @.str.226, ptr noundef @zbee_nwk_filter_valid, ptr noundef @zbee_nwk_build_filter, ptr noundef null)
  call void @llvm.lifetime.end.p0(i64 8, ptr %1) #10
  ret void
}