; Function Attrs: null_pointer_is_valid sspstrong uwtable
define hidden void @proto_register_zbee_nwk() local_unnamed_addr #1 {
  tail call void @register_init_routine(ptr noundef nonnull @proto_init_zbee_nwk)
  tail call void @register_cleanup_routine(ptr noundef nonnull @proto_cleanup_zbee_nwk)
  %1 = tail call i32 @proto_register_protocol(ptr noundef nonnull @.str.226, ptr noundef nonnull @.str.227, ptr noundef nonnull @.str.228)
  store i32 %1, ptr @proto_zbee_nwk, align 4
  %2 = tail call i32 @proto_register_protocol(ptr noundef nonnull @.str.229, ptr noundef nonnull @.str.229, ptr noundef nonnull @.str.230)
  store i32 %2, ptr @proto_zbee_beacon, align 4
  %3 = tail call i32 @proto_register_protocol(ptr noundef nonnull @.str.231, ptr noundef nonnull @.str.231, ptr noundef nonnull @.str.232)
  store i32 %3, ptr @proto_zbip_beacon, align 4
  %4 = tail call i32 @proto_register_protocol(ptr noundef nonnull @.str.233, ptr noundef nonnull @.str.233, ptr noundef nonnull @.str.234)
  store i32 %4, ptr @proto_zbee_ie, align 4
  %5 = load i32, ptr @proto_zbee_nwk, align 4
  tail call void @proto_register_field_array(i32 noundef %5, ptr noundef nonnull @proto_register_zbee_nwk.hf, i32 noundef 105)
  tail call void @proto_register_subtree_array(ptr noundef nonnull @proto_register_zbee_nwk.ett, i32 noundef 17)
  %6 = load i32, ptr @proto_zbee_nwk, align 4
  %7 = tail call ptr @expert_register_protocol(i32 noundef %6)
  tail call void @expert_register_field_array(ptr noundef %7, ptr noundef nonnull @proto_register_zbee_nwk.ei, i32 noundef 1)
  %8 = load i32, ptr @proto_zbee_nwk, align 4
  %9 = tail call ptr @register_dissector(ptr noundef nonnull @.str.228, ptr noundef nonnull @dissect_zbee_nwk, i32 noundef %8)
  %10 = load i32, ptr @proto_zbee_beacon, align 4
  %11 = tail call ptr @register_dissector(ptr noundef nonnull @.str.230, ptr noundef nonnull @dissect_zbee_beacon, i32 noundef %10)
  %12 = load i32, ptr @proto_zbip_beacon, align 4
  %13 = tail call ptr @register_dissector(ptr noundef nonnull @.str.232, ptr noundef nonnull @dissect_zbip_beacon, i32 noundef %12)
  %14 = load i32, ptr @proto_zbee_ie, align 4
  %15 = tail call ptr @register_dissector(ptr noundef nonnull @.str.234, ptr noundef nonnull @dissect_zbee_ie, i32 noundef %14)
  %16 = tail call i32 @address_type_dissector_register(ptr noundef nonnull @.str.235, ptr noundef nonnull @.str.236, ptr noundef nonnull @zbee_nwk_address_to_str, ptr noundef nonnull @zbee_nwk_address_str_len, ptr noundef null, ptr noundef null, ptr noundef nonnull @zbee_nwk_address_len, ptr noundef null, ptr noundef null)
  store i32 %16, ptr @zbee_nwk_address_type, align 4
  %17 = load i32, ptr @proto_zbee_nwk, align 4
  tail call void @zbee_security_register(ptr noundef null, i32 noundef %17)
  %18 = tail call i32 @register_tap(ptr noundef nonnull @.str.228)
  store i32 %18, ptr @zbee_nwk_tap, align 4
  %19 = load i32, ptr @proto_zbee_nwk, align 4
  tail call void @register_conversation_table(i32 noundef %19, i1 noundef zeroext true, ptr noundef nonnull @zbee_nwk_conversation_packet, ptr noundef nonnull @zbee_nwk_endpoint_packet)
  tail call void @register_conversation_filter(ptr noundef nonnull @.str.228, ptr noundef nonnull @.str.226, ptr noundef nonnull @zbee_nwk_filter_valid, ptr noundef nonnull @zbee_nwk_build_filter, ptr noundef null)
  ret void
}